; Function Attrs: mustprogress uwtable
define hidden noundef zeroext i1 @_ZN4leaneqERKNS_4nameEPKc(ptr noundef nonnull readonly align 8 captures(none) dereferenceable(8) %0, ptr noundef %1) local_unnamed_addr #1 {
  %3 = load ptr, ptr %0, align 8, !tbaa !6
  %4 = ptrtoint ptr %3 to i64
  %5 = and i64 %4, 1
  %.not.i.i.i.i = icmp eq i64 %5, 0
  br i1 %.not.i.i.i.i, label %9, label %6

6:                                                ; preds = %2
  %7 = lshr i64 %4, 1
  %8 = trunc i64 %7 to i32
  br label %_ZNK4lean4name4kindEv.exit

9:                                                ; preds = %2
  %10 = getelementptr i8, ptr %3, i64 4
  %.val.i.i.i.i = load i32, ptr %10, align 4
  %11 = lshr i32 %.val.i.i.i.i, 24
  br label %_ZNK4lean4name4kindEv.exit

_ZNK4lean4name4kindEv.exit:                       ; preds = %6, %9
  %.0.i.i.i.i = phi i32 [ %8, %6 ], [ %11, %9 ]
  %12 = icmp eq i32 %.0.i.i.i.i, 1
  br i1 %12, label %13, label %22

13:                                               ; preds = %_ZNK4lean4name4kindEv.exit
  %14 = getelementptr inbounds nuw i8, ptr %3, i64 8
  %15 = load ptr, ptr %14, align 8, !tbaa !26
  %16 = ptrtoint ptr %15 to i64
  %17 = and i64 %16, 1
  %.not = icmp eq i64 %17, 0
  br i1 %.not, label %22, label %18

18:                                               ; preds = %13
  %19 = getelementptr inbounds nuw i8, ptr %3, i64 16
  %20 = load ptr, ptr %19, align 8, !tbaa !6
  %21 = tail call noundef zeroext i1 @_ZN4lean9string_eqEP11lean_objectPKc(ptr noundef %20, ptr noundef %1)
  br label %22

22:                                               ; preds = %18, %13, %_ZNK4lean4name4kindEv.exit
  %23 = phi i1 [ false, %13 ], [ false, %_ZNK4lean4name4kindEv.exit ], [ %21, %18 ]
  ret i1 %23
}